target datalayout = "e-m:e-p270:32:32-p271:32:32-p272:64:64-i64:64-i128:128-f80:128-n8:16:32:64-S128"
target triple = "x86_64-pc-linux-gnu"

%struct.wt_status = type { ptr, i32, ptr, ptr, %struct.pathspec, i32, i32, i32, i32, i32, i32, i32, i32, i32, i32, i32, ptr, [9 x [75 x i8]], i32, i32, i32, i32, i32, i32, i32, i32, i32, i32, i32, i8, %struct.wt_status_state, %struct.object_id, i32, i32, ptr, ptr, ptr, %struct.string_list, %struct.string_list, %struct.string_list, i32 }
%struct.pathspec = type { i32, i8, i32, i32, ptr }
%struct.wt_status_state = type { i32, i32, i32, i32, i32, i32, i32, i32, i32, i32, ptr, ptr, ptr, ptr, %struct.object_id, %struct.object_id, %struct.object_id }
%struct.object_id = type { [32 x i8], i32 }
%struct.string_list = type { ptr, i64, i64, i8, ptr }
%struct.string_list_item = type { ptr, ptr }
%struct.wt_status_change_data = type { i32, i32, i32, i32, i32, i32, %struct.object_id, %struct.object_id, i32, i32, ptr, i8 }

@the_repository = external global ptr, align 8
@.str.10 = private unnamed_addr constant [3 x i8] c"%s\00", align 1
@.str.29 = private unnamed_addr constant [1 x i8] zeroinitializer, align 1
@git_gettext_enabled = external global i32, align 4
@default_abbrev = external global i32, align 4
@.str.168 = private unnamed_addr constant [35 x i8] c"Cherry-pick currently in progress.\00", align 1
@.str.169 = private unnamed_addr constant [44 x i8] c"You are currently cherry-picking commit %s.\00", align 1
@.str.170 = private unnamed_addr constant [55 x i8] c"  (fix conflicts and run \22git cherry-pick --continue\22)\00", align 1
@.str.171 = private unnamed_addr constant [49 x i8] c"  (run \22git cherry-pick --continue\22 to continue)\00", align 1
@.str.172 = private unnamed_addr constant [58 x i8] c"  (all conflicts fixed: run \22git cherry-pick --continue\22)\00", align 1
@.str.173 = private unnamed_addr constant [52 x i8] c"  (use \22git cherry-pick --skip\22 to skip this patch)\00", align 1
@.str.174 = private unnamed_addr constant [70 x i8] c"  (use \22git cherry-pick --abort\22 to cancel the cherry-pick operation)\00", align 1
@is_null_oid.null_hash = internal constant [32 x i8] zeroinitializer, align 16

; Function Attrs: nounwind uwtable
define internal ptr @color(i32 noundef %0, ptr noundef %1) #0 {
  %3 = alloca i32, align 4
  %4 = alloca ptr, align 8
  %5 = alloca ptr, align 8
  store i32 %0, ptr %3, align 4, !tbaa !11
  store ptr %1, ptr %4, align 8, !tbaa !4
  call void @llvm.lifetime.start.p0(i64 8, ptr %5) #12
  store ptr @.str.29, ptr %5, align 8, !tbaa !9
  %6 = load ptr, ptr %4, align 8, !tbaa !4
  %7 = getelementptr inbounds nuw %struct.wt_status, ptr %6, i32 0, i32 9
  %8 = load i32, ptr %7, align 8, !tbaa !36
  %9 = call i32 @want_color_fd(i32 noundef 1, i32 noundef %8)
  %10 = icmp ne i32 %9, 0
  br i1 %10, label %11, label %18

11:                                               ; preds = %2
  %12 = load ptr, ptr %4, align 8, !tbaa !4
  %13 = getelementptr inbounds nuw %struct.wt_status, ptr %12, i32 0, i32 17
  %14 = load i32, ptr %3, align 4, !tbaa !11
  %15 = sext i32 %14 to i64
  %16 = getelementptr inbounds [9 x [75 x i8]], ptr %13, i64 0, i64 %15
  %17 = getelementptr inbounds [75 x i8], ptr %16, i64 0, i64 0
  store ptr %17, ptr %5, align 8, !tbaa !9
  br label %18

18:                                               ; preds = %11, %2
  %19 = load i32, ptr %3, align 4, !tbaa !11
  %20 = icmp eq i32 %19, 8
  br i1 %20, label %21, label %30

21:                                               ; preds = %18
  %22 = load ptr, ptr %5, align 8, !tbaa !9
  %23 = call i32 @color_is_nil(ptr noundef %22)
  %24 = icmp ne i32 %23, 0
  br i1 %24, label %25, label %30

25:                                               ; preds = %21
  %26 = load ptr, ptr %4, align 8, !tbaa !4
  %27 = getelementptr inbounds nuw %struct.wt_status, ptr %26, i32 0, i32 17
  %28 = getelementptr inbounds [9 x [75 x i8]], ptr %27, i64 0, i64 0
  %29 = getelementptr inbounds [75 x i8], ptr %28, i64 0, i64 0
  store ptr %29, ptr %5, align 8, !tbaa !9
  br label %30

30:                                               ; preds = %25, %21, %18
  %31 = load ptr, ptr %5, align 8, !tbaa !9
  call void @llvm.lifetime.end.p0(i64 8, ptr %5) #12
  ret ptr %31
}

; Function Attrs: nounwind uwtable
define internal void @wt_longstatus_print_trailer(ptr noundef %0) #0 {
  %2 = alloca ptr, align 8
  store ptr %0, ptr %2, align 8, !tbaa !4
  %3 = load ptr, ptr %2, align 8, !tbaa !4
  %4 = load ptr, ptr %2, align 8, !tbaa !4
  %5 = call ptr @color(i32 noundef 0, ptr noundef %4)
  call void (ptr, ptr, ptr, ...) @status_printf_ln(ptr noundef %3, ptr noundef %5, ptr noundef @.str.10, ptr noundef @.str.29)
  ret void
}

; Function Attrs: nounwind uwtable
define internal i32 @has_unmerged(ptr noundef %0) #0 {
  %2 = alloca i32, align 4
  %3 = alloca ptr, align 8
  %4 = alloca i32, align 4
  %5 = alloca ptr, align 8
  %6 = alloca i32, align 4
  store ptr %0, ptr %3, align 8, !tbaa !4
  call void @llvm.lifetime.start.p0(i64 4, ptr %4) #12
  store i32 0, ptr %4, align 4, !tbaa !11
  br label %7

7:                                                ; preds = %34, %1
  %8 = load i32, ptr %4, align 4, !tbaa !11
  %9 = sext i32 %8 to i64
  %10 = load ptr, ptr %3, align 8, !tbaa !4
  %11 = getelementptr inbounds nuw %struct.wt_status, ptr %10, i32 0, i32 37
  %12 = getelementptr inbounds nuw %struct.string_list, ptr %11, i32 0, i32 1
  %13 = load i64, ptr %12, align 8, !tbaa !179
  %14 = icmp ult i64 %9, %13
  br i1 %14, label %15, label %37

15:                                               ; preds = %7
  call void @llvm.lifetime.start.p0(i64 8, ptr %5) #12
  %16 = load ptr, ptr %3, align 8, !tbaa !4
  %17 = getelementptr inbounds nuw %struct.wt_status, ptr %16, i32 0, i32 37
  %18 = getelementptr inbounds nuw %struct.string_list, ptr %17, i32 0, i32 0
  %19 = load ptr, ptr %18, align 8, !tbaa !180
  %20 = load i32, ptr %4, align 4, !tbaa !11
  %21 = sext i32 %20 to i64
  %22 = getelementptr inbounds %struct.string_list_item, ptr %19, i64 %21
  %23 = getelementptr inbounds nuw %struct.string_list_item, ptr %22, i32 0, i32 1
  %24 = load ptr, ptr %23, align 8, !tbaa !140
  store ptr %24, ptr %5, align 8, !tbaa !142
  %25 = load ptr, ptr %5, align 8, !tbaa !142
  %26 = getelementptr inbounds nuw %struct.wt_status_change_data, ptr %25, i32 0, i32 2
  %27 = load i32, ptr %26, align 8, !tbaa !146
  %28 = icmp ne i32 %27, 0
  br i1 %28, label %29, label %30

29:                                               ; preds = %15
  store i32 1, ptr %2, align 4
  store i32 1, ptr %6, align 4
  br label %31

30:                                               ; preds = %15
  store i32 0, ptr %6, align 4
  br label %31

31:                                               ; preds = %30, %29
  call void @llvm.lifetime.end.p0(i64 8, ptr %5) #12
  %32 = load i32, ptr %6, align 4
  switch i32 %32, label %38 [
    i32 0, label %33
  ]

33:                                               ; preds = %31
  br label %34

34:                                               ; preds = %33
  %35 = load i32, ptr %4, align 4, !tbaa !11
  %36 = add nsw i32 %35, 1
  store i32 %36, ptr %4, align 4, !tbaa !11
  br label %7, !llvm.loop !181

37:                                               ; preds = %7
  store i32 0, ptr %2, align 4
  store i32 1, ptr %6, align 4
  br label %38

38:                                               ; preds = %37, %31
  call void @llvm.lifetime.end.p0(i64 4, ptr %4) #12
  %39 = load i32, ptr %2, align 4
  ret i32 %39
}

; Function Attrs: inlinehint nounwind uwtable
define internal ptr @_(ptr noundef %0) #8 {
  %2 = alloca ptr, align 8
  %3 = alloca ptr, align 8
  store ptr %0, ptr %3, align 8, !tbaa !9
  %4 = load ptr, ptr %3, align 8, !tbaa !9
  %5 = load i8, ptr %4, align 1, !tbaa !30
  %6 = icmp ne i8 %5, 0
  br i1 %6, label %8, label %7

7:                                                ; preds = %1
  store ptr @.str.29, ptr %2, align 8
  br label %16

8:                                                ; preds = %1
  %9 = load i32, ptr @git_gettext_enabled, align 4, !tbaa !11
  %10 = icmp ne i32 %9, 0
  br i1 %10, label %13, label %11

11:                                               ; preds = %8
  %12 = load ptr, ptr %3, align 8, !tbaa !9
  store ptr %12, ptr %2, align 8
  br label %16

13:                                               ; preds = %8
  %14 = load ptr, ptr %3, align 8, !tbaa !9
  %15 = call ptr @dcgettext(ptr noundef null, ptr noundef %14, i32 noundef 5) #12
  store ptr %15, ptr %2, align 8
  br label %16

16:                                               ; preds = %13, %11, %7
  %17 = load ptr, ptr %2, align 8
  ret ptr %17
}

; Function Attrs: inlinehint nounwind uwtable
define internal i32 @is_null_oid(ptr noundef %0) #8 {
  %2 = alloca ptr, align 8
  store ptr %0, ptr %2, align 8, !tbaa !200
  %3 = load ptr, ptr %2, align 8, !tbaa !200
  %4 = getelementptr inbounds nuw %struct.object_id, ptr %3, i32 0, i32 0
  %5 = getelementptr inbounds [32 x i8], ptr %4, i64 0, i64 0
  %6 = call i32 @memcmp(ptr noundef %5, ptr noundef @is_null_oid.null_hash, i64 noundef 32) #13
  %7 = icmp ne i32 %6, 0
  %8 = xor i1 %7, true
  %9 = zext i1 %8 to i32
  ret i32 %9
}

; Function Attrs: nounwind uwtable
define internal void @show_cherry_pick_in_progress(ptr noundef %0, ptr noundef %1) #0 {
  %3 = alloca ptr, align 8
  %4 = alloca ptr, align 8
  store ptr %0, ptr %3, align 8, !tbaa !4
  store ptr %1, ptr %4, align 8, !tbaa !9
  %5 = load ptr, ptr %3, align 8, !tbaa !4
  %6 = getelementptr inbounds nuw %struct.wt_status, ptr %5, i32 0, i32 30
  %7 = getelementptr inbounds nuw %struct.wt_status_state, ptr %6, i32 0, i32 16
  %8 = call i32 @is_null_oid(ptr noundef %7)
  %9 = icmp ne i32 %8, 0
  br i1 %9, label %10, label %14

10:                                               ; preds = %2
  %11 = load ptr, ptr %3, align 8, !tbaa !4
  %12 = load ptr, ptr %4, align 8, !tbaa !9
  %13 = call ptr @_(ptr noundef @.str.168)
  call void (ptr, ptr, ptr, ...) @status_printf_ln(ptr noundef %11, ptr noundef %12, ptr noundef %13)
  br label %24

14:                                               ; preds = %2
  %15 = load ptr, ptr %3, align 8, !tbaa !4
  %16 = load ptr, ptr %4, align 8, !tbaa !9
  %17 = call ptr @_(ptr noundef @.str.169)
  %18 = load ptr, ptr @the_repository, align 8, !tbaa !33
  %19 = load ptr, ptr %3, align 8, !tbaa !4
  %20 = getelementptr inbounds nuw %struct.wt_status, ptr %19, i32 0, i32 30
  %21 = getelementptr inbounds nuw %struct.wt_status_state, ptr %20, i32 0, i32 16
  %22 = load i32, ptr @default_abbrev, align 4, !tbaa !11
  %23 = call ptr @repo_find_unique_abbrev(ptr noundef %18, ptr noundef %21, i32 noundef %22)
  call void (ptr, ptr, ptr, ...) @status_printf_ln(ptr noundef %15, ptr noundef %16, ptr noundef %17, ptr noundef %23)
  br label %24

24:                                               ; preds = %14, %10
  %25 = load ptr, ptr %3, align 8, !tbaa !4
  %26 = getelementptr inbounds nuw %struct.wt_status, ptr %25, i32 0, i32 23
  %27 = load i32, ptr %26, align 8, !tbaa !232
  %28 = icmp ne i32 %27, 0
  br i1 %28, label %29, label %59

29:                                               ; preds = %24
  %30 = load ptr, ptr %3, align 8, !tbaa !4
  %31 = call i32 @has_unmerged(ptr noundef %30)
  %32 = icmp ne i32 %31, 0
  br i1 %32, label %33, label %37

33:                                               ; preds = %29
  %34 = load ptr, ptr %3, align 8, !tbaa !4
  %35 = load ptr, ptr %4, align 8, !tbaa !9
  %36 = call ptr @_(ptr noundef @.str.170)
  call void (ptr, ptr, ptr, ...) @status_printf_ln(ptr noundef %34, ptr noundef %35, ptr noundef %36)
  br label %52

37:                                               ; preds = %29
  %38 = load ptr, ptr %3, align 8, !tbaa !4
  %39 = getelementptr inbounds nuw %struct.wt_status, ptr %38, i32 0, i32 30
  %40 = getelementptr inbounds nuw %struct.wt_status_state, ptr %39, i32 0, i32 16
  %41 = call i32 @is_null_oid(ptr noundef %40)
  %42 = icmp ne i32 %41, 0
  br i1 %42, label %43, label %47

43:                                               ; preds = %37
  %44 = load ptr, ptr %3, align 8, !tbaa !4
  %45 = load ptr, ptr %4, align 8, !tbaa !9
  %46 = call ptr @_(ptr noundef @.str.171)
  call void (ptr, ptr, ptr, ...) @status_printf_ln(ptr noundef %44, ptr noundef %45, ptr noundef %46)
  br label %51

47:                                               ; preds = %37
  %48 = load ptr, ptr %3, align 8, !tbaa !4
  %49 = load ptr, ptr %4, align 8, !tbaa !9
  %50 = call ptr @_(ptr noundef @.str.172)
  call void (ptr, ptr, ptr, ...) @status_printf_ln(ptr noundef %48, ptr noundef %49, ptr noundef %50)
  br label %51

51:                                               ; preds = %47, %43
  br label %52

52:                                               ; preds = %51, %33
  %53 = load ptr, ptr %3, align 8, !tbaa !4
  %54 = load ptr, ptr %4, align 8, !tbaa !9
  %55 = call ptr @_(ptr noundef @.str.173)
  call void (ptr, ptr, ptr, ...) @status_printf_ln(ptr noundef %53, ptr noundef %54, ptr noundef %55)
  %56 = load ptr, ptr %3, align 8, !tbaa !4
  %57 = load ptr, ptr %4, align 8, !tbaa !9
  %58 = call ptr @_(ptr noundef @.str.174)
  call void (ptr, ptr, ptr, ...) @status_printf_ln(ptr noundef %56, ptr noundef %57, ptr noundef %58)
  br label %59

59:                                               ; preds = %52, %24
  %60 = load ptr, ptr %3, align 8, !tbaa !4
  call void @wt_longstatus_print_trailer(ptr noundef %60)
  ret void
}